target datalayout = "e-m:e-p270:32:32-p271:32:32-p272:64:64-i64:64-i128:128-f80:128-n8:16:32:64-S128"
target triple = "x86_64-pc-linux-gnu"

@_ZN5boost6cobalt11this_thread6detail28default_coro_memory_resourceE = hidden thread_local global ptr null, align 8
@_ZTHN5boost6cobalt11this_thread6detail28default_coro_memory_resourceE = hidden alias void (), ptr @__tls_init

; Function Attrs: uwtable
define weak_odr hidden noundef ptr @_ZTWN5boost6cobalt11this_thread6detail28default_coro_memory_resourceE() #10 comdat {
  call void @_ZTHN5boost6cobalt11this_thread6detail28default_coro_memory_resourceE()
  %1 = call align 8 ptr @llvm.threadlocal.address.p0(ptr align 8 @_ZN5boost6cobalt11this_thread6detail28default_coro_memory_resourceE)
  ret ptr %1
}

; Function Attrs: mustprogress nounwind uwtable
define noundef ptr @_ZN5boost6cobalt11this_thread20get_default_resourceEv() #2 {
  %1 = call ptr @_ZTWN5boost6cobalt11this_thread6detail28default_coro_memory_resourceE()
  %2 = load ptr, ptr %1, align 8, !tbaa !7
  ret ptr %2
}

; Function Attrs: mustprogress nounwind uwtable
define noundef ptr @_ZN5boost6cobalt11this_thread20set_default_resourceEPNSt3pmr15memory_resourceE(ptr noundef %0) #2 {
  %2 = alloca ptr, align 8
  %3 = alloca ptr, align 8
  store ptr %0, ptr %2, align 8, !tbaa !7
  call void @llvm.lifetime.start.p0(i64 8, ptr %3) #9
  %4 = call noundef ptr @_ZN5boost6cobalt11this_thread20get_default_resourceEv() #9
  store ptr %4, ptr %3, align 8, !tbaa !7
  %5 = load ptr, ptr %2, align 8, !tbaa !7
  %6 = call ptr @_ZTWN5boost6cobalt11this_thread6detail28default_coro_memory_resourceE()
  store ptr %5, ptr %6, align 8, !tbaa !7
  %7 = load ptr, ptr %3, align 8, !tbaa !7
  call void @llvm.lifetime.end.p0(i64 8, ptr %3) #9
  ret ptr %7
}