; Function Attrs: nounwind uwtable
define noundef ptr @_ZN5boost6cobalt11this_thread20set_default_resourceEPNSt3pmr15memory_resourceE(ptr noundef %0) local_unnamed_addr #7 {
  %2 = load i8, ptr @__tls_guard, align 1
  %3 = icmp eq i8 %2, 0
  br i1 %3, label %_ZN5boost6cobalt11this_thread20get_default_resourceEv.exit, label %_ZN5boost6cobalt11this_thread20get_default_resourceEv.exit.thread, !prof !17

_ZN5boost6cobalt11this_thread20get_default_resourceEv.exit.thread: ; preds = %1
  %.pre.i.i = tail call align 8 ptr @llvm.threadlocal.address.p0(ptr align 8 @_ZN5boost6cobalt11this_thread6detail28default_coro_memory_resourceE)
  %4 = load ptr, ptr %.pre.i.i, align 8, !tbaa !18
  br label %_ZTWN5boost6cobalt11this_thread6detail28default_coro_memory_resourceE.exit

_ZN5boost6cobalt11this_thread20get_default_resourceEv.exit: ; preds = %1
  store i8 1, ptr @__tls_guard, align 1
  %5 = tail call ptr @llvm.invariant.start.p0(i64 1, ptr nonnull @__tls_guard)
  %6 = tail call noundef nonnull ptr @_ZNSt3pmr20get_default_resourceEv() #6
  %7 = tail call align 8 ptr @llvm.threadlocal.address.p0(ptr align 8 @_ZN5boost6cobalt11this_thread6detail28default_coro_memory_resourceE)
  store ptr %6, ptr %7, align 8, !tbaa !18
  %8 = tail call i32 @__cxa_thread_atexit(ptr nonnull @_ZNSt14_Optional_baseIN5boost4asio15any_io_executorELb0ELb0EED2Ev, ptr nonnull @_ZN5boost6cobalt11this_thread6detail8executorE, ptr nonnull @__dso_handle) #6
  %.pr = load i8, ptr @__tls_guard, align 1
  %9 = load ptr, ptr %7, align 8, !tbaa !18
  %10 = icmp eq i8 %.pr, 0
  br i1 %10, label %11, label %_ZTWN5boost6cobalt11this_thread6detail28default_coro_memory_resourceE.exit, !prof !19

11:                                               ; preds = %_ZN5boost6cobalt11this_thread20get_default_resourceEv.exit
  store i8 1, ptr @__tls_guard, align 1
  %12 = tail call ptr @llvm.invariant.start.p0(i64 1, ptr nonnull @__tls_guard)
  %13 = tail call noundef nonnull ptr @_ZNSt3pmr20get_default_resourceEv() #6
  store ptr %13, ptr %7, align 8, !tbaa !18
  %14 = tail call i32 @__cxa_thread_atexit(ptr nonnull @_ZNSt14_Optional_baseIN5boost4asio15any_io_executorELb0ELb0EED2Ev, ptr nonnull @_ZN5boost6cobalt11this_thread6detail8executorE, ptr nonnull @__dso_handle) #6
  br label %_ZTWN5boost6cobalt11this_thread6detail28default_coro_memory_resourceE.exit

_ZTWN5boost6cobalt11this_thread6detail28default_coro_memory_resourceE.exit: ; preds = %_ZN5boost6cobalt11this_thread20get_default_resourceEv.exit, %_ZN5boost6cobalt11this_thread20get_default_resourceEv.exit.thread, %11
  %15 = phi ptr [ %9, %11 ], [ %4, %_ZN5boost6cobalt11this_thread20get_default_resourceEv.exit.thread ], [ %9, %_ZN5boost6cobalt11this_thread20get_default_resourceEv.exit ]
  %.pre-phi.i = phi ptr [ %7, %11 ], [ %.pre.i.i, %_ZN5boost6cobalt11this_thread20get_default_resourceEv.exit.thread ], [ %7, %_ZN5boost6cobalt11this_thread20get_default_resourceEv.exit ]
  store ptr %0, ptr %.pre-phi.i, align 8, !tbaa !18
  ret ptr %15
}